(dp0
(I7
I3
tp1
cnumpy.core.multiarray
scalar
p2
(cnumpy
dtype
p3
(S'f8'
p4
I0
I1
tp5
Rp6
(I3
S'<'
p7
NNNI-1
I-1
I0
tp8
bS'u\x94{R\xdd\x926@'
p9
tp10
Rp11
s(I6
I9
tp12
g2
(g6
S'/\x11\xbd\x05c\x075@'
p13
tp14
Rp15
s(I12
I1
tp16
g2
(g6
S'i\xd9\x15"\x9e\x067@'
p17
tp18
Rp19
s(I11
I11
tp20
g2
(g6
S'\x0c?\x90"mf6@'
p21
tp22
Rp23
s(I7
I12
tp24
g2
(g6
S'\x975>\xca\xfcB6@'
p25
tp26
Rp27
s(I14
I4
tp28
g2
(g6
S'\xaf\x7f`\xd4\x0c\x067@'
p29
tp30
Rp31
s(I13
I4
tp32
g2
(g6
S'U\xbc\x1b\xf0\xa7\x017@'
p33
tp34
Rp35
s(I12
I12
tp36
g2
(g6
S'\x0eCk\xfd\xe4\xe56@'
p37
tp38
Rp39
s(I0
I7
tp40
g2
(g6
S'[\xaa\xa2*\x9e\x067@'
p41
tp42
Rp43
s(I15
I1
tp44
g2
(g6
S'[\xaa\xa2*\x9e\x067@'
p45
tp46
Rp47
s(I1
I6
tp48
g2
(g6
S'\xc4@\xca\xcf\x99\x067@'
p49
tp50
Rp51
s(I0
I10
tp52
g2
(g6
S'[\xaa\xa2*\x9e\x067@'
p53
tp54
Rp55
s(I3
I7
tp56
g2
(g6
S'\x9f93dG~ @'
p57
tp58
Rp59
s(I2
I5
tp60
g2
(g6
S'\xab\x9dX\xd3G\x057@'
p61
tp62
Rp63
s(I1
I11
tp64
g2
(g6
S'\xb5i\x9a\xcd\x9d\x067@'
p65
tp66
Rp67
s(I8
I5
tp68
g2
(g6
S'4\xc5\xc7[(\x025@'
p69
tp70
Rp71
s(I5
I8
tp72
g2
(g6
S'X\xf7\x03\xa0\xb2\xb45@'
p73
tp74
Rp75
s(I4
I0
tp76
g2
(g6
S'[\xaa\xa2*\x9e\x067@'
p77
tp78
Rp79
s(I10
I8
tp80
g2
(g6
S'z\xca2\xady\x1c2@'
p81
tp82
Rp83
s(I9
I0
tp84
g2
(g6
S'[\xaa\xa2*\x9e\x067@'
p85
tp86
Rp87
s(I6
I7
tp88
g2
(g6
S'y\x05\xc4\x8e\xf3\xcd%@'
p89
tp90
Rp91
s(I5
I5
tp92
g2
(g6
S'nX&\xa6Q\xb32@'
p93
tp94
Rp95
s(I11
I5
tp96
g2
(g6
S'\x8f\x91R\xce_~1@'
p97
tp98
Rp99
s(I10
I7
tp100
g2
(g6
S'\xfeU\x15p.\xa45@'
p101
tp102
Rp103
s(I7
I6
tp104
g2
(g6
S'\xd5\x05\xee\x89\x8e\xe84@'
p105
tp106
Rp107
s(I6
I10
tp108
g2
(g6
S'Hq\xa8\x81h\xb65@'
p109
tp110
Rp111
s(I12
I6
tp112
g2
(g6
S'\xa6Y\x0f\r\x92\x905@'
p113
tp114
Rp115
s(I15
I11
tp116
g2
(g6
S'[\xaa\xa2*\x9e\x067@'
p117
tp118
Rp119
s(I14
I1
tp120
g2
(g6
S'[\xaa\xa2*\x9e\x067@'
p121
tp122
Rp123
s(I13
I7
tp124
g2
(g6
S'\x86Z\x1aL\xb5\r#@'
p125
tp126
Rp127
s(I0
I4
tp128
g2
(g6
S'[\xaa\xa2*\x9e\x067@'
p129
tp130
Rp131
s(I15
I4
tp132
g2
(g6
S'[\xaa\xa2*\x9e\x067@'
p133
tp134
Rp135
s(I1
I1
tp136
g2
(g6
S'[\xaa\xa2*\x9e\x067@'
p137
tp138
Rp139
s(I8
I15
tp140
g2
(g6
S'[\xaa\xa2*\x9e\x067@'
p141
tp142
Rp143
s(I4
I10
tp144
g2
(g6
S'!s\xe61*\xf95@'
p145
tp146
Rp147
s(I3
I2
tp148
g2
(g6
S'\xa7\x8fn&\x9d\x067@'
p149
tp150
Rp151
s(I2
I6
tp152
g2
(g6
S'\xff=\x17_\xd8\xff6@'
p153
tp154
Rp155
s(I9
I14
tp156
g2
(g6
S'\x90:\xf8.e\x067@'
p157
tp158
Rp159
s(I8
I2
tp160
g2
(g6
S'/\x11\xc9\x97\x92\x067@'
p161
tp162
Rp163
s(I5
I11
tp164
g2
(g6
S'\xf0\x0e1\xf21\xbe5@'
p165
tp166
Rp167
s(I4
I5
tp168
g2
(g6
S'm\xacG[S\x7f6@'
p169
tp170
Rp171
s(I10
I13
tp172
g2
(g6
S'9|\xcdxY\xff6@'
p173
tp174
Rp175
s(I9
I3
tp176
g2
(g6
S'\xdf\xa0\x16\xe5*\x805@'
p177
tp178
Rp179
s(I6
I0
tp180
g2
(g6
S'[\xaa\xa2*\x9e\x067@'
p181
tp182
Rp183
s(I11
I0
tp184
g2
(g6
S'[\xaa\xa2*\x9e\x067@'
p185
tp186
Rp187
s(I7
I5
tp188
g2
(g6
S'\xc0\x82\x11\xbcM\xfb1@'
p189
tp190
Rp191
s(I14
I15
tp192
g2
(g6
S'[\xaa\xa2*\x9e\x067@'
p193
tp194
Rp195
s(I12
I11
tp196
g2
(g6
S'I\xcb\xad\xa3$\xf96@'
p197
tp198
Rp199
s(I15
I14
tp200
g2
(g6
S'[\xaa\xa2*\x9e\x067@'
p201
tp202
Rp203
s(I14
I2
tp204
g2
(g6
S'[\xaa\xa2*\x9e\x067@'
p205
tp206
Rp207
s(I13
I10
tp208
g2
(g6
S'\xd1\xac\xbe\x97#\xfc6@'
p209
tp210
Rp211
s(I0
I1
tp212
g2
(g6
S'[\xaa\xa2*\x9e\x067@'
p213
tp214
Rp215
s(I3
I12
tp216
g2
(g6
S'\xa3\xab\x9e4\xa1\x9d6@'
p217
tp218
Rp219
s(I1
I12
tp220
g2
(g6
S'm\x83+\x1a\x9e\x067@'
p221
tp222
Rp223
s(I8
I12
tp224
g2
(g6
S'bUD\xbf\x8cR2@'
p225
tp226
Rp227
s(I4
I15
tp228
g2
(g6
S'[\xaa\xa2*\x9e\x067@'
p229
tp230
Rp231
s(I3
I1
tp232
g2
(g6
S'[\xaa\xa2*\x9e\x067@'
p233
tp234
Rp235
s(I2
I11
tp236
g2
(g6
S'\xee_\x9ec\x97\x017@'
p237
tp238
Rp239
s(I9
I9
tp240
g2
(g6
S'\xc0I\x7f\xf2\x10\xf45@'
p241
tp242
Rp243
s(I5
I14
tp244
g2
(g6
S'P:\xc4Mo\x067@'
p245
tp246
Rp247
s(I10
I14
tp248
g2
(g6
S'\xfd\xd1\xf5\xa6p\x067@'
p249
tp250
Rp251
s(I6
I13
tp252
g2
(g6
S'\x17o="\xa3\x017@'
p253
tp254
Rp255
s(I11
I15
tp256
g2
(g6
S'[\xaa\xa2*\x9e\x067@'
p257
tp258
Rp259
s(I7
I8
tp260
g2
(g6
S'\x0e\xb3D\x1a\x03x\x05@'
p261
tp262
Rp263
s(I14
I8
tp264
g2
(g6
S'\xc5\xddO\x875\xd36@'
p265
tp266
Rp267
s(I13
I0
tp268
g2
(g6
S'[\xaa\xa2*\x9e\x067@'
p269
tp270
Rp271
s(I12
I8
tp272
g2
(g6
S'\xa7\xbb>cP$6@'
p273
tp274
Rp275
s(I15
I13
tp276
g2
(g6
S'[\xaa\xa2*\x9e\x067@'
p277
tp278
Rp279
s(I13
I13
tp280
g2
(g6
S'\x95(\xa8.\x9d\x067@'
p281
tp282
Rp283
s(I0
I14
tp284
g2
(g6
S'[\xaa\xa2*\x9e\x067@'
p285
tp286
Rp287
s(I3
I11
tp288
g2
(g6
S'\xcf\xcd\xf3|\x1f\xdc6@'
p289
tp290
Rp291
s(I2
I1
tp292
g2
(g6
S'[\xaa\xa2*\x9e\x067@'
p293
tp294
Rp295
s(I1
I15
tp296
g2
(g6
S'[\xaa\xa2*\x9e\x067@'
p297
tp298
Rp299
s(I8
I9
tp300
g2
(g6
S'|@\xf0\x14\xa2\xca5@'
p301
tp302
Rp303
s(I4
I12
tp304
g2
(g6
S'd\xf2u\xc1\xb1\xc41@'
p305
tp306
Rp307
s(I2
I12
tp308
g2
(g6
S'b\xc3\x03D>\x067@'
p309
tp310
Rp311
s(I9
I4
tp312
g2
(g6
S'\x84\x1e\xc6\xb8\x8a\xa05@'
p313
tp314
Rp315
s(I5
I1
tp316
g2
(g6
S'\x10\xf3\xe6\xdd\x97\x067@'
p317
tp318
Rp319
s(I10
I3
tp320
g2
(g6
S'Z\xad\xb5<\r\xd86@'
p321
tp322
Rp323
s(I7
I2
tp324
g2
(g6
S'u\x8d\xedmd\x067@'
p325
tp326
Rp327
s(I6
I14
tp328
g2
(g6
S'\x8d\xf7z\x94\x81\x067@'
p329
tp330
Rp331
s(I12
I2
tp332
g2
(g6
S'\x97~\xa6\xc7\x0f\x067@'
p333
tp334
Rp335
s(I11
I10
tp336
g2
(g6
S'\xbcQ\xe8\x8f=}2@'
p337
tp338
Rp339
s(I7
I15
tp340
g2
(g6
S'[\xaa\xa2*\x9e\x067@'
p341
tp342
Rp343
s(I14
I5
tp344
g2
(g6
S'\xd7\x90\x8d\x1a\x05\xf66@'
p345
tp346
Rp347
s(I13
I3
tp348
g2
(g6
S'\x972\x08\xe1.\x067@'
p349
tp350
Rp351
s(I12
I13
tp352
g2
(g6
S'\xc5\x81\xe8\x06&\x067@'
p353
tp354
Rp355
s(I15
I0
tp356
g2
(g6
S'[\xaa\xa2*\x9e\x067@'
p357
tp358
Rp359
s(I1
I5
tp360
g2
(g6
S'%\xed\xe1\xd7\x99\x067@'
p361
tp362
Rp363
s(I0
I11
tp364
g2
(g6
S'[\xaa\xa2*\x9e\x067@'
p365
tp366
Rp367
s(I3
I6
tp368
g2
(g6
S'\xf3\xc5\x8f\x12\xad\xda5@'
p369
tp370
Rp371
s(I2
I2
tp372
g2
(g6
S'\x88\xf5\xf5%\x9e\x067@'
p373
tp374
Rp375
s(I1
I10
tp376
g2
(g6
S'X\x99\xe5\x95\x93\x067@'
p377
tp378
Rp379
s(I8
I6
tp380
g2
(g6
S'/D\xb1\xa6Lf\x13@'
p381
tp382
Rp383
s(I4
I1
tp384
g2
(g6
S'\x971\x03\x08\x9e\x067@'
p385
tp386
Rp387
s(I10
I9
tp388
g2
(g6
S'\xb4B\xc3`>\xef5@'
p389
tp390
Rp391
s(I9
I7
tp392
g2
(g6
S'W\x94\xd0\x1e\xde\xcc4@'
p393
tp394
Rp395
s(I6
I4
tp396
g2
(g6
S'\\\xabFi-\x9b6@'
p397
tp398
Rp399
s(I5
I4
tp400
g2
(g6
S'\x84\xa8-\xd2:\xb46@'
p401
tp402
Rp403
s(I11
I4
tp404
g2
(g6
S'\xbd\x04\x7f2U 5@'
p405
tp406
Rp407
s(I10
I4
tp408
g2
(g6
S'\xbc\x19\xa9\xb1\xdb\xea5@'
p409
tp410
Rp411
s(I7
I1
tp412
g2
(g6
S'+\x10 \xb0\x9d\x067@'
p413
tp414
Rp415
s(I6
I11
tp416
g2
(g6
S'\x87_\xdb[&\xcf5@'
p417
tp418
Rp419
s(I12
I7
tp420
g2
(g6
S'\x9c{fY\xdc\xf35@'
p421
tp422
Rp423
s(I11
I9
tp424
g2
(g6
S'>8Q\xeb\xa516@'
p425
tp426
Rp427
s(I15
I10
tp428
g2
(g6
S'[\xaa\xa2*\x9e\x067@'
p429
tp430
Rp431
s(I14
I6
tp432
g2
(g6
S'\x13Xmx\xb3\xf76@'
p433
tp434
Rp435
s(I13
I6
tp436
g2
(g6
S'\x84\xce\xa1\t\xf8\xd25@'
p437
tp438
Rp439
s(I0
I5
tp440
g2
(g6
S'[\xaa\xa2*\x9e\x067@'
p441
tp442
Rp443
s(I15
I7
tp444
g2
(g6
S'[\xaa\xa2*\x9e\x067@'
p445
tp446
Rp447
s(I1
I0
tp448
g2
(g6
S'[\xaa\xa2*\x9e\x067@'
p449
tp450
Rp451
s(I0
I8
tp452
g2
(g6
S'[\xaa\xa2*\x9e\x067@'
p453
tp454
Rp455
s(I4
I11
tp456
g2
(g6
S'\x1e\xd4\x0bMq#6@'
p457
tp458
Rp459
s(I3
I5
tp460
g2
(g6
S'W\x16&\xc4\xe6q6@'
p461
tp462
Rp463
s(I2
I7
tp464
g2
(g6
S'1\xfe\x01\xca\t\xef6@'
p465
tp466
Rp467
s(I9
I13
tp468
g2
(g6
S'\x0b2I.,\x017@'
p469
tp470
Rp471
s(I8
I3
tp472
g2
(g6
S'\xf3\xe6|!q\xed6@'
p473
tp474
Rp475
s(I5
I10
tp476
g2
(g6
S'\xd7\x1a\xcb:I\x932@'
p477
tp478
Rp479
s(I4
I6
tp480
g2
(g6
S'\x8c$:l\xd9\xbb5@'
p481
tp482
Rp483
s(I10
I10
tp484
g2
(g6
S'+\xef\x1e1/\x855@'
p485
tp486
Rp487
s(I9
I2
tp488
g2
(g6
S'=(\x0f\xeej\x067@'
p489
tp490
Rp491
s(I6
I1
tp492
g2
(g6
S'z\xcf\xe56\x95\x067@'
p493
tp494
Rp495
s(I5
I7
tp496
g2
(g6
S'\xae2\xaej\x95\xe95@'
p497
tp498
Rp499
s(I11
I3
tp500
g2
(g6
S'\xcb\xcb\xc2IC\xd33@'
p501
tp502
Rp503
s(I7
I4
tp504
g2
(g6
S'A\xf2\xb0\x02Y\xa45@'
p505
tp506
Rp507
s(I14
I12
tp508
g2
(g6
S'\xddx\xfc<\x9a\x067@'
p509
tp510
Rp511
s(I12
I4
tp512
g2
(g6
S'Q\x162E\xe2\x8e5@'
p513
tp514
Rp515
s(I15
I9
tp516
g2
(g6
S'[\xaa\xa2*\x9e\x067@'
p517
tp518
Rp519
s(I14
I3
tp520
g2
(g6
S'G\x05\x91}\x8e\x067@'
p521
tp522
Rp523
s(I13
I9
tp524
g2
(g6
S'%\x92\x8a\xcaT\xe16@'
p525
tp526
Rp527
s(I0
I2
tp528
g2
(g6
S'[\xaa\xa2*\x9e\x067@'
p529
tp530
Rp531
s(I3
I15
tp532
g2
(g6
S'[\xaa\xa2*\x9e\x067@'
p533
tp534
Rp535
s(I1
I3
tp536
g2
(g6
S'\xf7\xd9\x84&\x9e\x067@'
p537
tp538
Rp539
s(I8
I13
tp540
g2
(g6
S'C\xe8X\xb3\x8a\x007@'
p541
tp542
Rp543
s(I4
I8
tp544
g2
(g6
S'\xc3\xb1[d(\x8b2@'
p545
tp546
Rp547
s(I3
I0
tp548
g2
(g6
S'[\xaa\xa2*\x9e\x067@'
p549
tp550
Rp551
s(I2
I8
tp552
g2
(g6
S'\x96\xbc\xcfi\xdd\xfd5@'
p553
tp554
Rp555
s(I9
I8
tp556
g2
(g6
S'\x8c\xca\x03`\x8c\x0e5@'
p557
tp558
Rp559
s(I8
I0
tp560
g2
(g6
S'[\xaa\xa2*\x9e\x067@'
p561
tp562
Rp563
s(I5
I13
tp564
g2
(g6
S'\x1b\x97\xf5i\xfd\xf86@'
p565
tp566
Rp567
s(I10
I15
tp568
g2
(g6
S'[\xaa\xa2*\x9e\x067@'
p569
tp570
Rp571
s(I6
I2
tp572
g2
(g6
S'\xbcd\x01\xf5\x8e\x057@'
p573
tp574
Rp575
s(I11
I14
tp576
g2
(g6
S"\xf7'\xe1w\x9b\x067@"
p577
tp578
Rp579
s(I7
I11
tp580
g2
(g6
S'\x938\t\xc3\xea\xfd5@'
p581
tp582
Rp583
s(I14
I9
tp584
g2
(g6
S'\xfc\xf0\xd5\x8c^\x027@'
p585
tp586
Rp587
s(I12
I9
tp588
g2
(g6
S'\x0e>0\xb6\x11/%@'
p589
tp590
Rp591
s(I15
I12
tp592
g2
(g6
S'[\xaa\xa2*\x9e\x067@'
p593
tp594
Rp595
s(I13
I12
tp596
g2
(g6
S'}P/+|\x067@'
p597
tp598
Rp599
s(I0
I15
tp600
g2
(g6
S'[\xaa\xa2*\x9e\x067@'
p601
tp602
Rp603
s(I3
I10
tp604
g2
(g6
S'\x04d\xf7Ot~1@'
p605
tp606
Rp607
s(I1
I14
tp608
g2
(g6
S'[\xaa\xa2*\x9e\x067@'
p609
tp610
Rp611
s(I8
I10
tp612
g2
(g6
S'\x7fC\x83rwN1@'
p613
tp614
Rp615
s(I4
I13
tp616
g2
(g6
S'EU\xd0iW\xf56@'
p617
tp618
Rp619
s(I2
I13
tp620
g2
(g6
S'\x85\x8b\xa2\x91\x9b\x067@'
p621
tp622
Rp623
s(I9
I11
tp624
g2
(g6
S'\xba\xb8\xd6@\x98\xb35@'
p625
tp626
Rp627
s(I5
I0
tp628
g2
(g6
S'[\xaa\xa2*\x9e\x067@'
p629
tp630
Rp631
s(I10
I0
tp632
g2
(g6
S'[\xaa\xa2*\x9e\x067@'
p633
tp634
Rp635
s(I6
I15
tp636
g2
(g6
S'[\xaa\xa2*\x9e\x067@'
p637
tp638
Rp639
s(I12
I3
tp640
g2
(g6
S'L\x84\x9a8?\x9e6@'
p641
tp642
Rp643
s(I11
I13
tp644
g2
(g6
S'\x90x\xe0\xd4\x9a\x027@'
p645
tp646
Rp647
s(I7
I14
tp648
g2
(g6
S'\xe013m\x9d\x067@'
p649
tp650
Rp651
s(I14
I10
tp652
g2
(g6
S'\x9d53\x91J\x037@'
p653
tp654
Rp655
s(I13
I2
tp656
g2
(g6
S':G\xda)\x99\x067@'
p657
tp658
Rp659
s(I12
I14
tp660
g2
(g6
S'\xcb\x80c\xe9\x9d\x067@'
p661
tp662
Rp663
s(I15
I3
tp664
g2
(g6
S'[\xaa\xa2*\x9e\x067@'
p665
tp666
Rp667
s(I13
I15
tp668
g2
(g6
S'[\xaa\xa2*\x9e\x067@'
p669
tp670
Rp671
s(I1
I4
tp672
g2
(g6
S'\x90\xac\xb5\x0b\x9e\x067@'
p673
tp674
Rp675
s(I0
I12
tp676
g2
(g6
S'[\xaa\xa2*\x9e\x067@'
p677
tp678
Rp679
s(I3
I9
tp680
g2
(g6
S'\xb8\xeb\xcd\xef \x19 @'
p681
tp682
Rp683
s(I2
I3
tp684
g2
(g6
S',\xc6\xc80\x9d\x067@'
p685
tp686
Rp687
s(I1
I9
tp688
g2
(g6
S' \xa0\xbd\xb8\x98\x067@'
p689
tp690
Rp691
s(I8
I7
tp692
g2
(g6
S'\xa4D`<=\xbf3@'
p693
tp694
Rp695
s(I4
I2
tp696
g2
(g6
S'_\x19\x14\xfe{\x067@'
p697
tp698
Rp699
s(I2
I14
tp700
g2
(g6
S'[\xaa\xa2*\x9e\x067@'
p701
tp702
Rp703
s(I9
I6
tp704
g2
(g6
S'\x0cn4]z85@'
p705
tp706
Rp707
s(I6
I5
tp708
g2
(g6
S'\x158\x19\xdd\xdd15@'
p709
tp710
Rp711
s(I5
I3
tp712
g2
(g6
S'\xb5G\xe7\x1d\xf2\xd96@'
p713
tp714
Rp715
s(I11
I7
tp716
g2
(g6
S'2B\xb4\x9b\xadU5@'
p717
tp718
Rp719
s(I10
I5
tp720
g2
(g6
S'\xa0\xd8\x12\xa7\x9dF5@'
p721
tp722
Rp723
s(I7
I0
tp724
g2
(g6
S'[\xaa\xa2*\x9e\x067@'
p725
tp726
Rp727
s(I6
I8
tp728
g2
(g6
S'r\xa4\xc1U\x8f\x7f5@'
p729
tp730
Rp731
s(I12
I0
tp732
g2
(g6
S'[\xaa\xa2*\x9e\x067@'
p733
tp734
Rp735
s(I11
I8
tp736
g2
(g6
S'\x16\xb4J\xa9\xed\x176@'
p737
tp738
Rp739
s(I7
I13
tp740
g2
(g6
S'{0\xcdS>\x007@'
p741
tp742
Rp743
s(I14
I7
tp744
g2
(g6
S'\xe9\xbe\xb5O\xc5\xae6@'
p745
tp746
Rp747
s(I13
I5
tp748
g2
(g6
S'\x99\x85\x9e\x1a9\xea6@'
p749
tp750
Rp751
s(I0
I6
tp752
g2
(g6
S'[\xaa\xa2*\x9e\x067@'
p753
tp754
Rp755
s(I15
I6
tp756
g2
(g6
S'[\xaa\xa2*\x9e\x067@'
p757
tp758
Rp759
s(I1
I7
tp760
g2
(g6
S'\xe5" \xf7q\x067@'
p761
tp762
Rp763
s(I0
I9
tp764
g2
(g6
S'[\xaa\xa2*\x9e\x067@'
p765
tp766
Rp767
s(I3
I4
tp768
g2
(g6
S'\xcc\x95\xda\xd7|\xfe6@'
p769
tp770
Rp771
s(I2
I4
tp772
g2
(g6
S'\xaf\x12\x93\x01\x81\x067@'
p773
tp774
Rp775
s(I9
I12
tp776
g2
(g6
S'\xc7Q\xa3\xf9l$6@'
p777
tp778
Rp779
s(I8
I4
tp780
g2
(g6
S'_WI\xa2\xc2\xc35@'
p781
tp782
Rp783
s(I5
I9
tp784
g2
(g6
S'\xf5\x02\x19e\x11\xf25@'
p785
tp786
Rp787
s(I4
I7
tp788
g2
(g6
S'N\xc7\xa4\xd0(U1@'
p789
tp790
Rp791
s(I10
I11
tp792
g2
(g6
S'\x0b\x94i\xa6\xb6i5@'
p793
tp794
Rp795
s(I9
I1
tp796
g2
(g6
S'\xe9\x19\x1c&\x9e\x067@'
p797
tp798
Rp799
s(I6
I6
tp800
g2
(g6
S'g"\xebq\n:5@'
p801
tp802
Rp803
s(I5
I6
tp804
g2
(g6
S'\xa6B\x9c!\xd9\x965@'
p805
tp806
Rp807
s(I11
I2
tp808
g2
(g6
S's \x90\xe9\x1d\x057@'
p809
tp810
Rp811
s(I10
I6
tp812
g2
(g6
S'\x1c\x03\xe8\x8d\xa4g5@'
p813
tp814
Rp815
s(I7
I7
tp816
g2
(g6
S'&B\x10\x17Br4@'
p817
tp818
Rp819
s(I14
I13
tp820
g2
(g6
S'[\xaa\xa2*\x9e\x067@'
p821
tp822
Rp823
s(I12
I5
tp824
g2
(g6
S'\xa4\x9bvW^@1@'
p825
tp826
Rp827
s(I15
I8
tp828
g2
(g6
S'[\xaa\xa2*\x9e\x067@'
p829
tp830
Rp831
s(I14
I0
tp832
g2
(g6
S'[\xaa\xa2*\x9e\x067@'
p833
tp834
Rp835
s(I13
I8
tp836
g2
(g6
S'C\xfa<\x8d?\x885@'
p837
tp838
Rp839
s(I0
I3
tp840
g2
(g6
S'[\xaa\xa2*\x9e\x067@'
p841
tp842
Rp843
s(I15
I5
tp844
g2
(g6
S'[\xaa\xa2*\x9e\x067@'
p845
tp846
Rp847
s(I3
I14
tp848
g2
(g6
S'Q}\xa66\x8b\x067@'
p849
tp850
Rp851
s(I1
I2
tp852
g2
(g6
S'[\xaa\xa2*\x9e\x067@'
p853
tp854
Rp855
s(I8
I14
tp856
g2
(g6
S'\x13!\xca\x1e\x9a\x067@'
p857
tp858
Rp859
s(I4
I9
tp860
g2
(g6
S'\n\x95\xd0\x04p\xb05@'
p861
tp862
Rp863
s(I3
I3
tp864
g2
(g6
S'O\xb4\x99\x1a\xbf\x017@'
p865
tp866
Rp867
s(I2
I9
tp868
g2
(g6
S'l\x9cp\x18\x89\xd75@'
p869
tp870
Rp871
s(I9
I15
tp872
g2
(g6
S'[\xaa\xa2*\x9e\x067@'
p873
tp874
Rp875
s(I8
I1
tp876
g2
(g6
S'aW\xf5\x07\x9e\x067@'
p877
tp878
Rp879
s(I5
I12
tp880
g2
(g6
S'\xf9\x07Av\xbdP6@'
p881
tp882
Rp883
s(I4
I4
tp884
g2
(g6
S'\xa5\xe6\xbf\x1d&\xea6@'
p885
tp886
Rp887
s(I10
I12
tp888
g2
(g6
S'\xe8~)\x8a\x89\t6@'
p889
tp890
Rp891
s(I6
I3
tp892
g2
(g6
S'\x13B\xdb\xb6\x0f\xfd6@'
p893
tp894
Rp895
s(I11
I1
tp896
g2
(g6
S'\x7fe\xcb\x1e\x9e\x067@'
p897
tp898
Rp899
s(I7
I10
tp900
g2
(g6
S'Z\x85Q7\x86\x191@'
p901
tp902
Rp903
s(I14
I14
tp904
g2
(g6
S'[\xaa\xa2*\x9e\x067@'
p905
tp906
Rp907
s(I12
I10
tp908
g2
(g6
S'\x8c\xe6\xe1_\x05N5@'
p909
tp910
Rp911
s(I15
I15
tp912
g2
(g6
S'[\xaa\xa2*\x9e\x067@'
p913
tp914
Rp915
s(I13
I11
tp916
g2
(g6
S'\xe3\x16\x9aC\x0e\x057@'
p917
tp918
Rp919
s(I0
I0
tp920
g2
(g6
S'[\xaa\xa2*\x9e\x067@'
p921
tp922
Rp923
s(I3
I13
tp924
g2
(g6
S'0k\x81{\xca\x037@'
p925
tp926
Rp927
s(I1
I13
tp928
g2
(g6
S'[\xaa\xa2*\x9e\x067@'
p929
tp930
Rp931
s(I8
I11
tp932
g2
(g6
S'\x91\xcd\xe1\xdb\xcf\xbd5@'
p933
tp934
Rp935
s(I4
I14
tp936
g2
(g6
S'uUDlS\x057@'
p937
tp938
Rp939
s(I2
I10
tp940
g2
(g6
S'_0az\xf9\xea6@'
p941
tp942
Rp943
s(I9
I10
tp944
g2
(g6
S'\xd2\x19\r\xb9+U5@'
p945
tp946
Rp947
s(I5
I15
tp948
g2
(g6
S'[\xaa\xa2*\x9e\x067@'
p949
tp950
Rp951
s(I10
I1
tp952
g2
(g6
S'\x90aN\xe0\x9d\x067@'
p953
tp954
Rp955
s(I6
I12
tp956
g2
(g6
S'\x82\xc5\x90"\x1dG4@'
p957
tp958
Rp959
s(I11
I12
tp960
g2
(g6
S'Oob\xd2\xe6\xec6@'
p961
tp962
Rp963
s(I7
I9
tp964
g2
(g6
S'\xee\x143P\xfa\xf74@'
p965
tp966
Rp967
s(I14
I11
tp968
g2
(g6
S'\x9a?\xa4G\x86\x067@'
p969
tp970
Rp971
s(I13
I1
tp972
g2
(g6
S'[\xaa\xa2*\x9e\x067@'
p973
tp974
Rp975
s(I12
I15
tp976
g2
(g6
S'[\xaa\xa2*\x9e\x067@'
p977
tp978
Rp979
s(I15
I2
tp980
g2
(g6
S'[\xaa\xa2*\x9e\x067@'
p981
tp982
Rp983
s(I13
I14
tp984
g2
(g6
S'[\xaa\xa2*\x9e\x067@'
p985
tp986
Rp987
s(I0
I13
tp988
g2
(g6
S'[\xaa\xa2*\x9e\x067@'
p989
tp990
Rp991
s(I3
I8
tp992
g2
(g6
S'J\x00Y\xf81\x9e4@'
p993
tp994
Rp995
s(I2
I0
tp996
g2
(g6
S'[\xaa\xa2*\x9e\x067@'
p997
tp998
Rp999
s(I1
I8
tp1000
g2
(g6
S'xs\xe9\xceu\x067@'
p1001
tp1002
Rp1003
s(I8
I8
tp1004
g2
(g6
S'L\xa8]\xdd\x18\x86!@'
p1005
tp1006
Rp1007
s(I4
I3
tp1008
g2
(g6
S'\x13&#\x03e\x027@'
p1009
tp1010
Rp1011
s(I2
I15
tp1012
g2
(g6
S'[\xaa\xa2*\x9e\x067@'
p1013
tp1014
Rp1015
s(I9
I5
tp1016
g2
(g6
S'j\xfbM1\xf4\x801@'
p1017
tp1018
Rp1019
s(I5
I2
tp1020
g2
(g6
S'\xe7\xcf\x17\xcb\x89\x057@'
p1021
tp1022
Rp1023
s(I11
I6
tp1024
g2
(g6
S'%Wo\xd1\x15+1@'
p1025
tp1026
Rp1027
s(I10
I2
tp1028
g2
(g6
S'\xdd\xe0\xbeE\x90\x057@'
p1029
tp1030
Rp1031
s.